target datalayout = "e-m:e-p270:32:32-p271:32:32-p272:64:64-i64:64-i128:128-f80:128-n8:16:32:64-S128"
target triple = "x86_64-unknown-linux-gnu"

%"class.std::__cxx11::basic_string" = type { %"struct.std::__cxx11::basic_string<char>::_Alloc_hider", i64, %union.anon }
%"struct.std::__cxx11::basic_string<char>::_Alloc_hider" = type { ptr }
%union.anon = type { i64, [8 x i8] }
%"struct.std::hash" = type { i8 }
%"struct.std::hash.11" = type { i8 }
%"class.std::allocator" = type { i8 }

; Function Attrs: mustprogress uwtable
define linkonce_odr noundef i64 @_ZNSt10_Hash_impl4hashEPKvmm(ptr noundef %__ptr, i64 noundef %__clength, i64 noundef %__seed) #4 comdat align 2 {
entry:
  %__ptr.addr = alloca ptr, align 8
  %__clength.addr = alloca i64, align 8
  %__seed.addr = alloca i64, align 8
  store ptr %__ptr, ptr %__ptr.addr, align 8
  store i64 %__clength, ptr %__clength.addr, align 8
  store i64 %__seed, ptr %__seed.addr, align 8
  %0 = load ptr, ptr %__ptr.addr, align 8
  %1 = load i64, ptr %__clength.addr, align 8
  %2 = load i64, ptr %__seed.addr, align 8
  %call = call noundef i64 @_ZSt11_Hash_bytesPKvmm(ptr noundef %0, i64 noundef %1, i64 noundef %2)
  ret i64 %call
}

; Function Attrs: mustprogress nounwind uwtable
define noundef i64 @_Z12hash_combinemm(i64 noundef %h1, i64 noundef %h2) #6 {
entry:
  %h1.addr = alloca i64, align 8
  %h2.addr = alloca i64, align 8
  store i64 %h1, ptr %h1.addr, align 8
  store i64 %h2, ptr %h2.addr, align 8
  %0 = load i64, ptr %h1.addr, align 8
  %1 = load i64, ptr %h2.addr, align 8
  %shl = shl i64 %1, 1
  %xor = xor i64 %0, %shl
  ret i64 %xor
}

; Function Attrs: mustprogress nounwind uwtable
define linkonce_odr noundef i64 @_ZNKSt4hashIyEclEy(ptr noundef nonnull align 1 dereferenceable(1) %this, i64 noundef %__val) #6 comdat align 2 {
entry:
  %this.addr = alloca ptr, align 8
  %__val.addr = alloca i64, align 8
  store ptr %this, ptr %this.addr, align 8
  store i64 %__val, ptr %__val.addr, align 8
  %0 = load i64, ptr %__val.addr, align 8
  ret i64 %0
}

; Function Attrs: mustprogress nounwind uwtable
define linkonce_odr noundef i64 @_ZNKSt4hashINSt7__cxx1112basic_stringIcSt11char_traitsIcESaIcEEEEclERKS5_(ptr noundef nonnull align 1 dereferenceable(1) %this, ptr noundef nonnull align 8 dereferenceable(32) %__s) #6 comdat align 2 personality ptr @__gxx_personality_v0 {
entry:
  %this.addr = alloca ptr, align 8
  %__s.addr = alloca ptr, align 8
  store ptr %this, ptr %this.addr, align 8
  store ptr %__s, ptr %__s.addr, align 8
  %0 = load ptr, ptr %__s.addr, align 8
  %call = call noundef ptr @_ZNKSt7__cxx1112basic_stringIcSt11char_traitsIcESaIcEE4dataEv(ptr noundef nonnull align 8 dereferenceable(32) %0) #3
  %1 = load ptr, ptr %__s.addr, align 8
  %call2 = call noundef i64 @_ZNKSt7__cxx1112basic_stringIcSt11char_traitsIcESaIcEE6lengthEv(ptr noundef nonnull align 8 dereferenceable(32) %1) #3
  %call3 = invoke noundef i64 @_ZNSt10_Hash_impl4hashEPKvmm(ptr noundef %call, i64 noundef %call2, i64 noundef 3339675911)
          to label %invoke.cont unwind label %terminate.lpad

invoke.cont:                                      ; preds = %entry
  ret i64 %call3

terminate.lpad:                                   ; preds = %entry
  %2 = landingpad { ptr, i32 }
          catch ptr null
  %3 = extractvalue { ptr, i32 } %2, 0
  call void @__clang_call_terminate(ptr %3) #21
  unreachable
}

; Function Attrs: mustprogress uwtable
define noundef i64 @_Z20compute_samples_hashPKcPKmS2_m(ptr noundef %fn, ptr noundef %samples_begin, ptr noundef %samples_size, i64 noundef %sample_count) #4 personality ptr @__gxx_personality_v0 {
entry:
  %fn.addr = alloca ptr, align 8
  %samples_begin.addr = alloca ptr, align 8
  %samples_size.addr = alloca ptr, align 8
  %sample_count.addr = alloca i64, align 8
  %h_string = alloca %"struct.std::hash", align 1
  %h_ull = alloca %"struct.std::hash.11", align 1
  %h = alloca i64, align 8
  %ref.tmp = alloca %"class.std::__cxx11::basic_string", align 8
  %ref.tmp1 = alloca %"class.std::allocator", align 1
  %exn.slot = alloca ptr, align 8
  %ehselector.slot = alloca i32, align 4
  %i = alloca i64, align 8
  store ptr %fn, ptr %fn.addr, align 8
  store ptr %samples_begin, ptr %samples_begin.addr, align 8
  store ptr %samples_size, ptr %samples_size.addr, align 8
  store i64 %sample_count, ptr %sample_count.addr, align 8
  %0 = load ptr, ptr %fn.addr, align 8
  call void @_ZNSaIcEC1Ev(ptr noundef nonnull align 1 dereferenceable(1) %ref.tmp1) #3
  invoke void @_ZNSt7__cxx1112basic_stringIcSt11char_traitsIcESaIcEEC1EPKcRKS3_(ptr noundef nonnull align 8 dereferenceable(32) %ref.tmp, ptr noundef %0, ptr noundef nonnull align 1 dereferenceable(1) %ref.tmp1)
          to label %invoke.cont unwind label %lpad

invoke.cont:                                      ; preds = %entry
  %call = call noundef i64 @_ZNKSt4hashINSt7__cxx1112basic_stringIcSt11char_traitsIcESaIcEEEEclERKS5_(ptr noundef nonnull align 1 dereferenceable(1) %h_string, ptr noundef nonnull align 8 dereferenceable(32) %ref.tmp) #3
  call void @_ZNSt7__cxx1112basic_stringIcSt11char_traitsIcESaIcEED1Ev(ptr noundef nonnull align 8 dereferenceable(32) %ref.tmp) #3
  call void @_ZNSaIcED1Ev(ptr noundef nonnull align 1 dereferenceable(1) %ref.tmp1) #3
  store i64 %call, ptr %h, align 8
  %1 = load i64, ptr %h, align 8
  %2 = load i64, ptr %sample_count.addr, align 8
  %call2 = call noundef i64 @_ZNKSt4hashIyEclEy(ptr noundef nonnull align 1 dereferenceable(1) %h_ull, i64 noundef %2) #3
  %call3 = call noundef i64 @_Z12hash_combinemm(i64 noundef %1, i64 noundef %call2)
  store i64 %call3, ptr %h, align 8
  store i64 0, ptr %i, align 8
  br label %for.cond

for.cond:                                         ; preds = %for.inc, %invoke.cont
  %3 = load i64, ptr %i, align 8
  %4 = load i64, ptr %sample_count.addr, align 8
  %cmp = icmp ult i64 %3, %4
  br i1 %cmp, label %for.body, label %for.end

for.body:                                         ; preds = %for.cond
  %5 = load i64, ptr %h, align 8
  %6 = load ptr, ptr %samples_begin.addr, align 8
  %7 = load i64, ptr %i, align 8
  %arrayidx = getelementptr inbounds i64, ptr %6, i64 %7
  %8 = load i64, ptr %arrayidx, align 8
  %call4 = call noundef i64 @_ZNKSt4hashIyEclEy(ptr noundef nonnull align 1 dereferenceable(1) %h_ull, i64 noundef %8) #3
  %call5 = call noundef i64 @_Z12hash_combinemm(i64 noundef %5, i64 noundef %call4)
  store i64 %call5, ptr %h, align 8
  %9 = load i64, ptr %h, align 8
  %10 = load ptr, ptr %samples_size.addr, align 8
  %11 = load i64, ptr %i, align 8
  %arrayidx6 = getelementptr inbounds i64, ptr %10, i64 %11
  %12 = load i64, ptr %arrayidx6, align 8
  %call7 = call noundef i64 @_ZNKSt4hashIyEclEy(ptr noundef nonnull align 1 dereferenceable(1) %h_ull, i64 noundef %12) #3
  %call8 = call noundef i64 @_Z12hash_combinemm(i64 noundef %9, i64 noundef %call7)
  store i64 %call8, ptr %h, align 8
  br label %for.inc

for.inc:                                          ; preds = %for.body
  %13 = load i64, ptr %i, align 8
  %inc = add i64 %13, 1
  store i64 %inc, ptr %i, align 8
  br label %for.cond, !llvm.loop !33

lpad:                                             ; preds = %entry
  %14 = landingpad { ptr, i32 }
          cleanup
  %15 = extractvalue { ptr, i32 } %14, 0
  store ptr %15, ptr %exn.slot, align 8
  %16 = extractvalue { ptr, i32 } %14, 1
  store i32 %16, ptr %ehselector.slot, align 4
  call void @_ZNSaIcED1Ev(ptr noundef nonnull align 1 dereferenceable(1) %ref.tmp1) #3
  br label %eh.resume

for.end:                                          ; preds = %for.cond
  %17 = load i64, ptr %h, align 8
  ret i64 %17

eh.resume:                                        ; preds = %lpad
  %exn = load ptr, ptr %exn.slot, align 8
  %sel = load i32, ptr %ehselector.slot, align 4
  %lpad.val = insertvalue { ptr, i32 } poison, ptr %exn, 0
  %lpad.val9 = insertvalue { ptr, i32 } %lpad.val, i32 %sel, 1
  resume { ptr, i32 } %lpad.val9
}