; Function Attrs: mustprogress uwtable
define noundef i64 @_Z20compute_samples_hashPKcPKmS2_m(ptr noundef %fn, ptr noundef readonly captures(none) %samples_begin, ptr noundef readonly captures(none) %samples_size, i64 noundef %sample_count) local_unnamed_addr #3 personality ptr @__gxx_personality_v0 {
entry:
  %ref.tmp = alloca %"class.std::__cxx11::basic_string", align 8
  %ref.tmp1 = alloca %"class.std::allocator", align 1
  call void @_ZNSaIcEC1Ev(ptr noundef nonnull align 1 dereferenceable(1) %ref.tmp1) #36
  invoke void @_ZNSt7__cxx1112basic_stringIcSt11char_traitsIcESaIcEEC1EPKcRKS3_(ptr noundef nonnull align 8 dereferenceable(32) %ref.tmp, ptr noundef %fn, ptr noundef nonnull align 1 dereferenceable(1) %ref.tmp1)
          to label %invoke.cont unwind label %lpad

invoke.cont:                                      ; preds = %entry
  %call.i = call noundef ptr @_ZNKSt7__cxx1112basic_stringIcSt11char_traitsIcESaIcEE4dataEv(ptr noundef nonnull align 8 dereferenceable(32) %ref.tmp) #36
  %call2.i = call noundef i64 @_ZNKSt7__cxx1112basic_stringIcSt11char_traitsIcESaIcEE6lengthEv(ptr noundef nonnull align 8 dereferenceable(32) %ref.tmp) #36
  %call.i2.i = invoke noundef i64 @_ZSt11_Hash_bytesPKvmm(ptr noundef %call.i, i64 noundef %call2.i, i64 noundef 3339675911)
          to label %_ZNKSt4hashINSt7__cxx1112basic_stringIcSt11char_traitsIcESaIcEEEEclERKS5_.exit unwind label %terminate.lpad.i

terminate.lpad.i:                                 ; preds = %invoke.cont
  %0 = landingpad { ptr, i32 }
          catch ptr null
  %1 = extractvalue { ptr, i32 } %0, 0
  call void @__clang_call_terminate(ptr %1) #41
  unreachable

_ZNKSt4hashINSt7__cxx1112basic_stringIcSt11char_traitsIcESaIcEEEEclERKS5_.exit: ; preds = %invoke.cont
  call void @_ZNSt7__cxx1112basic_stringIcSt11char_traitsIcESaIcEED1Ev(ptr noundef nonnull align 8 dereferenceable(32) %ref.tmp) #36
  call void @_ZNSaIcED1Ev(ptr noundef nonnull align 1 dereferenceable(1) %ref.tmp1) #36
  %shl.i = shl i64 %sample_count, 1
  %xor.i = xor i64 %call.i2.i, %shl.i
  %cmp12.not = icmp eq i64 %sample_count, 0
  br i1 %cmp12.not, label %for.end, label %for.body

for.body:                                         ; preds = %_ZNKSt4hashINSt7__cxx1112basic_stringIcSt11char_traitsIcESaIcEEEEclERKS5_.exit, %for.body
  %i.014 = phi i64 [ %inc, %for.body ], [ 0, %_ZNKSt4hashINSt7__cxx1112basic_stringIcSt11char_traitsIcESaIcEEEEclERKS5_.exit ]
  %h.013 = phi i64 [ %xor.i11, %for.body ], [ %xor.i, %_ZNKSt4hashINSt7__cxx1112basic_stringIcSt11char_traitsIcESaIcEEEEclERKS5_.exit ]
  %arrayidx = getelementptr inbounds i64, ptr %samples_begin, i64 %i.014
  %2 = load i64, ptr %arrayidx, align 8
  %arrayidx6 = getelementptr inbounds i64, ptr %samples_size, i64 %i.014
  %3 = load i64, ptr %arrayidx6, align 8
  %4 = xor i64 %3, %2
  %5 = shl i64 %4, 1
  %xor.i11 = xor i64 %5, %h.013
  %inc = add nuw i64 %i.014, 1
  %exitcond.not = icmp eq i64 %inc, %sample_count
  br i1 %exitcond.not, label %for.end, label %for.body, !llvm.loop !41

lpad:                                             ; preds = %entry
  %6 = landingpad { ptr, i32 }
          cleanup
  call void @_ZNSaIcED1Ev(ptr noundef nonnull align 1 dereferenceable(1) %ref.tmp1) #36
  resume { ptr, i32 } %6

for.end:                                          ; preds = %for.body, %_ZNKSt4hashINSt7__cxx1112basic_stringIcSt11char_traitsIcESaIcEEEEclERKS5_.exit
  %h.0.lcssa = phi i64 [ %xor.i, %_ZNKSt4hashINSt7__cxx1112basic_stringIcSt11char_traitsIcESaIcEEEEclERKS5_.exit ], [ %xor.i11, %for.body ]
  ret i64 %h.0.lcssa
}